V@media -sass-debug-info{filename{font-family:file\u005c:\u005c/\u005c/\u005c/Users\u005c/dp\u005c/Documents\u005c/progs\u005c/SaLTBOX\u005c/scavengehr\u005c/static\u005c/css\u005c/style\u005c.css}line{font-family:\u005c000031}}\u000abody {\u000a  padding-top: 70px; }\u000a
p1
.