V$(document).ready(function(){console.log('loaded');var items=[];$("#add-item").on("click",(function(){var item_name=$('input[name=item]').val();console.log('item name',item_name);$('tbody').append("<tr>\u000a        <td></td>\u000a        <td>"+item_name+"</td>\u000a        <td></td>\u000a      </tr>");}));});
p1
.