V$(document).ready(function(){var items=[];$("#add-item").on("click",(function(){var item_name=$('input[name=item]').val();console.log('item name',item_name);$('tbody').append("<tr><td></td><td>"+item_name+"</td><td></td></tr>");}));});
p1
.